target datalayout = "e-m:e-p270:32:32-p271:32:32-p272:64:64-i64:64-i128:128-f80:128-n8:16:32:64-S128"
target triple = "x86_64-pc-linux-gnu"

%struct.SDL_VideoDevice = type { ptr, ptr, ptr, ptr, ptr, ptr, ptr, ptr, ptr, ptr, ptr, ptr, ptr, ptr, ptr, ptr, ptr, ptr, ptr, ptr, ptr, ptr, ptr, ptr, ptr, ptr, ptr, ptr, ptr, ptr, ptr, ptr, ptr, ptr, ptr, ptr, ptr, ptr, ptr, ptr, ptr, ptr, ptr, ptr, ptr, ptr, ptr, ptr, ptr, ptr, ptr, ptr, ptr, ptr, ptr, ptr, ptr, ptr, ptr, ptr, ptr, ptr, ptr, ptr, ptr, ptr, ptr, ptr, ptr, ptr, ptr, ptr, ptr, ptr, ptr, ptr, ptr, ptr, ptr, ptr, ptr, ptr, ptr, ptr, ptr, ptr, ptr, ptr, ptr, ptr, ptr, ptr, ptr, ptr, ptr, ptr, ptr, i64, i8, i8, i8, ptr, i32, ptr, %struct.SDL_Rect, ptr, ptr, i32, ptr, ptr, ptr, ptr, i64, ptr, i8, i32, i32, %struct.anon, ptr, ptr, ptr, ptr, ptr, ptr, %struct.SDL_AtomicInt, %struct.SDL_AtomicInt, i8, %struct.anon.0, ptr, ptr, ptr, ptr, ptr }
%struct.SDL_Rect = type { i32, i32, i32, i32 }
%struct.anon = type { i32, i32, i32, i32, i32, i32, i32, i32, i32, i32, i32, i32, i32, i32, i32, i32, i32, i32, i32, i32, i32, i32, i32, i32, i32, i32, i32, i32, i32, [256 x i8], ptr }
%struct.SDL_AtomicInt = type { i32 }
%struct.anon.0 = type { ptr, ptr, i32, [256 x i8], ptr }
%struct.SDL_VideoData = type { ptr, ptr, i32, ptr, i64, i32, ptr, i32, i64, i64, %struct.X11_ClipboardData, %struct.X11_ClipboardData, ptr, i64, %struct.X11_SettingsData, i8, %struct.anon.1, [256 x i32], i8, i8, i8, i64, i8, %struct.SDL_Point, i32, ptr, i32, i8, i32, %struct.anon.2, i8, i64, ptr, ptr, i8, i8, i8 }
%struct.X11_ClipboardData = type { ptr, ptr, ptr, i64, i32 }
%struct.X11_SettingsData = type { ptr }
%struct.anon.1 = type { i64, i64, i64, i64, i64, i64, i64, i64, i64, i64, i64, i64, i64, i64, i64, i64, i64, i64, i64, i64, i64, i64, i64, i64, i64, i64, i64, i64, i64, i64, i64, i64, i64, i64, i64, i64, i64, i64, i64, i64, i64, i64, i64, i64, i64, i64, i64, i64, i64, i64, i64, i64, i64 }
%struct.SDL_Point = type { i32, i32 }
%struct.anon.2 = type { ptr, i32, i32, i32, i16, i32, i32 }
%struct.XWindowAttributes = type { i32, i32, i32, i32, i32, i32, ptr, i64, i32, i32, i32, i32, i64, i64, i32, i64, i32, i32, i64, i64, i64, i32, ptr }
%struct.SDL_Window = type { i32, ptr, ptr, i32, i32, i32, i32, i32, i32, i32, i32, float, float, i32, i32, i64, i64, float, i8, i8, i32, i32, %struct.SDL_Rect, %struct.SDL_Rect, %struct.SDL_Rect, i8, i8, i8, %struct.SDL_DisplayMode, %struct.SDL_DisplayMode, %struct.SDL_HDROutputProperties, float, ptr, i8, i8, i8, i8, i8, i8, i8, i8, i8, i32, i32, i32, i32, %struct.SDL_Rect, i32, i8, %struct.SDL_Rect, i32, %struct.SDL_Rect, ptr, ptr, i32, float, i32, i32, ptr, ptr, ptr, ptr, ptr, ptr, ptr, ptr, ptr }
%struct.SDL_DisplayMode = type { i32, i32, i32, i32, float, float, i32, i32, ptr }
%struct.SDL_HDROutputProperties = type { float, float }
%struct.SDL_DisplayData = type { i32, ptr, i32, i32, i32, i32, i64, i8, i64, [16 x i8] }
%struct.SDL_WindowData = type { ptr, i64, ptr, i64, i8, %struct.XShmSegmentInfo, ptr, ptr, ptr, i8, i32, i32, i32, i32, i8, i8, i8, i64, i32, i64, i8, %struct.SDL_Point, %struct.XConfigureEvent, %struct.XConfigureEvent, ptr, i64, i64, i64, i8, i64, ptr, i8, [4 x i64], %struct.SDL_Rect, i64, %struct._XSyncValue, i8, %struct.SDL_Rect, %struct.SDL_DisplayMode, i32, i32, i8, i8, i8, i8, i8, i8, i8, i8, i32, %struct.XPoint, ptr, ptr, i32, i32, i8 }
%struct.XShmSegmentInfo = type { i64, i32, ptr, i32 }
%struct.XConfigureEvent = type { i32, i64, i32, ptr, i64, i64, i32, i32, i32, i32, i32, i64, i32 }
%struct._XSyncValue = type { i32, i32 }
%struct.XPoint = type { i16, i16 }
%union._XEvent = type { [24 x i64] }
%struct._XDisplay = type { ptr, ptr, i32, i32, i32, i32, ptr, i64, i64, i64, i32, ptr, i32, i32, i32, i32, i32, ptr, i32, i32, ptr, ptr, i32, i64, i64, ptr, ptr, ptr, ptr, i32, ptr, ptr, ptr, i32, i32, ptr, i64, i64, i32, i32, ptr, ptr, i32, ptr, ptr, i64, i32, ptr, [128 x ptr], [128 x ptr], i64, ptr, ptr, i64, ptr, ptr, ptr, i64, ptr, i32, i32, ptr, ptr, %struct.anon.3, ptr, ptr, i64, ptr, ptr, i32, ptr, i32, ptr, ptr, i64, i32, ptr, ptr, ptr, i32, [128 x ptr], [128 x ptr], ptr, ptr, ptr, ptr, i32, i64 }
%struct.anon.3 = type { ptr, ptr, ptr }

@X11_XGetWindowAttributes = external global ptr, align 8
@X11_XFlush = external global ptr, align 8
@X11_XSync = external global ptr, align 8
@X11_XIfEvent = external global ptr, align 8
@X11_XWithdrawWindow = external global ptr, align 8

; Function Attrs: nounwind uwtable
define internal void @X11_SetKeyboardFocus(ptr noundef %0, i1 noundef zeroext %1) #0 {
  %3 = alloca ptr, align 8
  %4 = alloca i8, align 1
  %5 = alloca ptr, align 8
  store ptr %0, ptr %3, align 8
  %6 = zext i1 %1 to i8
  store i8 %6, ptr %4, align 1
  call void @llvm.lifetime.start.p0(i64 8, ptr %5) #7
  %7 = load ptr, ptr %3, align 8
  store ptr %7, ptr %5, align 8
  br label %8

8:                                                ; preds = %14, %2
  %9 = load ptr, ptr %5, align 8
  %10 = getelementptr inbounds nuw %struct.SDL_Window, ptr %9, i32 0, i32 15
  %11 = load i64, ptr %10, align 8
  %12 = and i64 %11, 786432
  %13 = icmp ne i64 %12, 0
  br i1 %13, label %14, label %18

14:                                               ; preds = %8
  %15 = load ptr, ptr %5, align 8
  %16 = getelementptr inbounds nuw %struct.SDL_Window, ptr %15, i32 0, i32 63
  %17 = load ptr, ptr %16, align 8
  store ptr %17, ptr %5, align 8
  br label %8, !llvm.loop !16

18:                                               ; preds = %8
  %19 = load ptr, ptr %3, align 8
  %20 = load ptr, ptr %5, align 8
  %21 = getelementptr inbounds nuw %struct.SDL_Window, ptr %20, i32 0, i32 60
  store ptr %19, ptr %21, align 8
  %22 = load i8, ptr %4, align 1, !range !5, !noundef !6
  %23 = trunc i8 %22 to i1
  br i1 %23, label %24, label %37

24:                                               ; preds = %18
  %25 = load ptr, ptr %3, align 8
  %26 = getelementptr inbounds nuw %struct.SDL_Window, ptr %25, i32 0, i32 34
  %27 = load i8, ptr %26, align 1, !range !5, !noundef !6
  %28 = trunc i8 %27 to i1
  br i1 %28, label %37, label %29

29:                                               ; preds = %24
  %30 = load ptr, ptr %3, align 8
  %31 = getelementptr inbounds nuw %struct.SDL_Window, ptr %30, i32 0, i32 40
  %32 = load i8, ptr %31, align 1, !range !5, !noundef !6
  %33 = trunc i8 %32 to i1
  br i1 %33, label %37, label %34

34:                                               ; preds = %29
  %35 = load ptr, ptr %3, align 8
  %36 = call zeroext i1 @SDL_SetKeyboardFocus(ptr noundef %35)
  br label %37

37:                                               ; preds = %34, %29, %24, %18
  call void @llvm.lifetime.end.p0(i64 8, ptr %5) #7
  ret void
}

; Function Attrs: nounwind uwtable
define internal zeroext i1 @X11_IsDisplayOk(ptr noundef %0) #0 {
  %2 = alloca i1, align 1
  %3 = alloca ptr, align 8
  store ptr %0, ptr %3, align 8
  %4 = load ptr, ptr %3, align 8
  %5 = getelementptr inbounds nuw %struct._XDisplay, ptr %4, i32 0, i32 37
  %6 = load volatile i64, ptr %5, align 8
  %7 = and i64 %6, 1
  %8 = icmp ne i64 %7, 0
  br i1 %8, label %9, label %10

9:                                                ; preds = %1
  store i1 false, ptr %2, align 1
  br label %11

10:                                               ; preds = %1
  store i1 true, ptr %2, align 1
  br label %11

11:                                               ; preds = %10, %9
  %12 = load i1, ptr %2, align 1
  ret i1 %12
}

; Function Attrs: nounwind uwtable
define internal zeroext i1 @X11_IsWindowMapped(ptr noundef %0, ptr noundef %1) #0 {
  %3 = alloca i1, align 1
  %4 = alloca ptr, align 8
  %5 = alloca ptr, align 8
  %6 = alloca ptr, align 8
  %7 = alloca ptr, align 8
  %8 = alloca %struct.XWindowAttributes, align 8
  %9 = alloca i32, align 4
  store ptr %0, ptr %4, align 8
  store ptr %1, ptr %5, align 8
  call void @llvm.lifetime.start.p0(i64 8, ptr %6) #7
  %10 = load ptr, ptr %5, align 8
  %11 = getelementptr inbounds nuw %struct.SDL_Window, ptr %10, i32 0, i32 59
  %12 = load ptr, ptr %11, align 8
  store ptr %12, ptr %6, align 8
  call void @llvm.lifetime.start.p0(i64 8, ptr %7) #7
  %13 = load ptr, ptr %4, align 8
  %14 = getelementptr inbounds nuw %struct.SDL_VideoDevice, ptr %13, i32 0, i32 128
  %15 = load ptr, ptr %14, align 8
  store ptr %15, ptr %7, align 8
  call void @llvm.lifetime.start.p0(i64 136, ptr %8) #7
  %16 = load ptr, ptr @X11_XGetWindowAttributes, align 8
  %17 = load ptr, ptr %7, align 8
  %18 = getelementptr inbounds nuw %struct.SDL_VideoData, ptr %17, i32 0, i32 0
  %19 = load ptr, ptr %18, align 8
  %20 = load ptr, ptr %6, align 8
  %21 = getelementptr inbounds nuw %struct.SDL_WindowData, ptr %20, i32 0, i32 1
  %22 = load i64, ptr %21, align 8
  %23 = call i32 %16(ptr noundef %19, i64 noundef %22, ptr noundef %8)
  %24 = getelementptr inbounds nuw %struct.XWindowAttributes, ptr %8, i32 0, i32 17
  %25 = load i32, ptr %24, align 4
  %26 = icmp ne i32 %25, 0
  br i1 %26, label %27, label %28

27:                                               ; preds = %2
  store i1 true, ptr %3, align 1
  store i32 1, ptr %9, align 4
  br label %29

28:                                               ; preds = %2
  store i1 false, ptr %3, align 1
  store i32 1, ptr %9, align 4
  br label %29

29:                                               ; preds = %28, %27
  call void @llvm.lifetime.end.p0(i64 136, ptr %8) #7
  call void @llvm.lifetime.end.p0(i64 8, ptr %7) #7
  call void @llvm.lifetime.end.p0(i64 8, ptr %6) #7
  %30 = load i1, ptr %3, align 1
  ret i1 %30
}

; Function Attrs: nounwind uwtable
define hidden void @X11_HideWindow(ptr noundef %0, ptr noundef %1) #0 {
  %3 = alloca ptr, align 8
  %4 = alloca ptr, align 8
  %5 = alloca ptr, align 8
  %6 = alloca ptr, align 8
  %7 = alloca i32, align 4
  %8 = alloca ptr, align 8
  %9 = alloca %union._XEvent, align 8
  %10 = alloca ptr, align 8
  %11 = alloca i8, align 1
  store ptr %0, ptr %3, align 8
  store ptr %1, ptr %4, align 8
  call void @llvm.lifetime.start.p0(i64 8, ptr %5) #7
  %12 = load ptr, ptr %4, align 8
  %13 = getelementptr inbounds nuw %struct.SDL_Window, ptr %12, i32 0, i32 59
  %14 = load ptr, ptr %13, align 8
  store ptr %14, ptr %5, align 8
  call void @llvm.lifetime.start.p0(i64 8, ptr %6) #7
  %15 = load ptr, ptr %4, align 8
  %16 = call ptr @SDL_GetDisplayDriverDataForWindow(ptr noundef %15)
  store ptr %16, ptr %6, align 8
  call void @llvm.lifetime.start.p0(i64 4, ptr %7) #7
  %17 = load ptr, ptr %6, align 8
  %18 = icmp ne ptr %17, null
  br i1 %18, label %19, label %23

19:                                               ; preds = %2
  %20 = load ptr, ptr %6, align 8
  %21 = getelementptr inbounds nuw %struct.SDL_DisplayData, ptr %20, i32 0, i32 0
  %22 = load i32, ptr %21, align 8
  br label %24

23:                                               ; preds = %2
  br label %24

24:                                               ; preds = %23, %19
  %25 = phi i32 [ %22, %19 ], [ 0, %23 ]
  store i32 %25, ptr %7, align 4
  call void @llvm.lifetime.start.p0(i64 8, ptr %8) #7
  %26 = load ptr, ptr %5, align 8
  %27 = getelementptr inbounds nuw %struct.SDL_WindowData, ptr %26, i32 0, i32 24
  %28 = load ptr, ptr %27, align 8
  %29 = getelementptr inbounds nuw %struct.SDL_VideoData, ptr %28, i32 0, i32 0
  %30 = load ptr, ptr %29, align 8
  store ptr %30, ptr %8, align 8
  call void @llvm.lifetime.start.p0(i64 192, ptr %9) #7
  %31 = load ptr, ptr %3, align 8
  %32 = load ptr, ptr %4, align 8
  %33 = call zeroext i1 @X11_IsWindowMapped(ptr noundef %31, ptr noundef %32)
  br i1 %33, label %34, label %60

34:                                               ; preds = %24
  %35 = load ptr, ptr @X11_XWithdrawWindow, align 8
  %36 = load ptr, ptr %8, align 8
  %37 = load ptr, ptr %5, align 8
  %38 = getelementptr inbounds nuw %struct.SDL_WindowData, ptr %37, i32 0, i32 1
  %39 = load i64, ptr %38, align 8
  %40 = load i32, ptr %7, align 4
  %41 = call i32 %35(ptr noundef %36, i64 noundef %39, i32 noundef %40)
  %42 = load ptr, ptr %4, align 8
  %43 = getelementptr inbounds nuw %struct.SDL_Window, ptr %42, i32 0, i32 15
  %44 = load i64, ptr %43, align 8
  %45 = and i64 %44, 2048
  %46 = icmp ne i64 %45, 0
  br i1 %46, label %56, label %47

47:                                               ; preds = %34
  %48 = load ptr, ptr %8, align 8
  %49 = call zeroext i1 @X11_IsDisplayOk(ptr noundef %48)
  br i1 %49, label %50, label %56

50:                                               ; preds = %47
  %51 = load ptr, ptr @X11_XIfEvent, align 8
  %52 = load ptr, ptr %8, align 8
  %53 = load ptr, ptr %5, align 8
  %54 = getelementptr inbounds nuw %struct.SDL_WindowData, ptr %53, i32 0, i32 1
  %55 = call i32 %51(ptr noundef %52, ptr noundef %9, ptr noundef @isUnmapNotify, ptr noundef %54)
  br label %56

56:                                               ; preds = %50, %47, %34
  %57 = load ptr, ptr @X11_XFlush, align 8
  %58 = load ptr, ptr %8, align 8
  %59 = call i32 %57(ptr noundef %58)
  br label %60

60:                                               ; preds = %56, %24
  %61 = load ptr, ptr %4, align 8
  %62 = getelementptr inbounds nuw %struct.SDL_Window, ptr %61, i32 0, i32 15
  %63 = load i64, ptr %62, align 8
  %64 = and i64 %63, 524288
  %65 = icmp ne i64 %64, 0
  br i1 %65, label %66, label %79

66:                                               ; preds = %60
  %67 = load ptr, ptr %4, align 8
  %68 = getelementptr inbounds nuw %struct.SDL_Window, ptr %67, i32 0, i32 15
  %69 = load i64, ptr %68, align 8
  %70 = and i64 %69, 2147483648
  %71 = icmp ne i64 %70, 0
  br i1 %71, label %79, label %72

72:                                               ; preds = %66
  call void @llvm.lifetime.start.p0(i64 8, ptr %10) #7
  call void @llvm.lifetime.start.p0(i64 1, ptr %11) #7
  %73 = load ptr, ptr %4, align 8
  %74 = call zeroext i1 @SDL_ShouldRelinquishPopupFocus(ptr noundef %73, ptr noundef %10)
  %75 = zext i1 %74 to i8
  store i8 %75, ptr %11, align 1
  %76 = load ptr, ptr %10, align 8
  %77 = load i8, ptr %11, align 1, !range !5, !noundef !6
  %78 = trunc i8 %77 to i1
  call void @X11_SetKeyboardFocus(ptr noundef %76, i1 noundef zeroext %78)
  call void @llvm.lifetime.end.p0(i64 1, ptr %11) #7
  call void @llvm.lifetime.end.p0(i64 8, ptr %10) #7
  br label %79

79:                                               ; preds = %72, %66, %60
  %80 = load ptr, ptr @X11_XSync, align 8
  %81 = load ptr, ptr %8, align 8
  %82 = call i32 %80(ptr noundef %81, i32 noundef 0)
  %83 = load ptr, ptr %3, align 8
  call void @X11_PumpEvents(ptr noundef %83)
  call void @llvm.lifetime.end.p0(i64 192, ptr %9) #7
  call void @llvm.lifetime.end.p0(i64 8, ptr %8) #7
  call void @llvm.lifetime.end.p0(i64 4, ptr %7) #7
  call void @llvm.lifetime.end.p0(i64 8, ptr %6) #7
  call void @llvm.lifetime.end.p0(i64 8, ptr %5) #7
  ret void
}