; Function Attrs: nounwind uwtable
define hidden void @X11_HideWindow(ptr noundef %0, ptr noundef %1) local_unnamed_addr #0 {
  %3 = alloca %struct.XWindowAttributes, align 8
  %4 = alloca %union._XEvent, align 8
  %5 = alloca ptr, align 8
  %6 = getelementptr inbounds nuw i8, ptr %1, i64 392
  %7 = load ptr, ptr %6, align 8
  %8 = tail call ptr @SDL_GetDisplayDriverDataForWindow(ptr noundef %1) #12
  %.not = icmp eq ptr %8, null
  br i1 %.not, label %11, label %9

9:                                                ; preds = %2
  %10 = load i32, ptr %8, align 8
  br label %11

11:                                               ; preds = %2, %9
  %12 = phi i32 [ %10, %9 ], [ 0, %2 ]
  %13 = getelementptr inbounds nuw i8, ptr %7, i64 336
  %14 = load ptr, ptr %13, align 8
  %15 = load ptr, ptr %14, align 8
  call void @llvm.lifetime.start.p0(i64 192, ptr nonnull %4) #12
  %16 = getelementptr i8, ptr %0, i64 1656
  %.val = load ptr, ptr %16, align 8
  %.val23 = load ptr, ptr %6, align 8
  %.val.val = load ptr, ptr %.val, align 8
  %17 = getelementptr i8, ptr %.val23, i64 8
  %.val23.val = load i64, ptr %17, align 8
  call void @llvm.lifetime.start.p0(i64 136, ptr nonnull %3) #12
  %18 = load ptr, ptr @X11_XGetWindowAttributes, align 8
  %19 = call i32 %18(ptr noundef %.val.val, i64 noundef %.val23.val, ptr noundef nonnull %3) #12
  %20 = getelementptr inbounds nuw i8, ptr %3, i64 92
  %21 = load i32, ptr %20, align 4
  %.not.i.not = icmp eq i32 %21, 0
  call void @llvm.lifetime.end.p0(i64 136, ptr nonnull %3) #12
  br i1 %.not.i.not, label %40, label %22

22:                                               ; preds = %11
  %23 = load ptr, ptr @X11_XWithdrawWindow, align 8
  %24 = getelementptr inbounds nuw i8, ptr %7, i64 8
  %25 = load i64, ptr %24, align 8
  %26 = call i32 %23(ptr noundef %15, i64 noundef %25, i32 noundef %12) #12
  %27 = getelementptr inbounds nuw i8, ptr %1, i64 72
  %28 = load i64, ptr %27, align 8
  %29 = and i64 %28, 2048
  %.not20 = icmp eq i64 %29, 0
  br i1 %.not20, label %30, label %37

30:                                               ; preds = %22
  %31 = getelementptr inbounds nuw i8, ptr %15, i64 248
  %32 = load volatile i64, ptr %31, align 8
  %33 = and i64 %32, 1
  %.not.i24 = icmp eq i64 %33, 0
  br i1 %.not.i24, label %34, label %37

34:                                               ; preds = %30
  %35 = load ptr, ptr @X11_XIfEvent, align 8
  %36 = call i32 %35(ptr noundef nonnull %15, ptr noundef nonnull %4, ptr noundef nonnull @isUnmapNotify, ptr noundef nonnull %24) #12
  br label %37

37:                                               ; preds = %34, %30, %22
  %38 = load ptr, ptr @X11_XFlush, align 8
  %39 = call i32 %38(ptr noundef %15) #12
  br label %40

40:                                               ; preds = %37, %11
  %41 = getelementptr inbounds nuw i8, ptr %1, i64 72
  %42 = load i64, ptr %41, align 8
  %43 = and i64 %42, 2148007936
  %or.cond = icmp eq i64 %43, 524288
  br i1 %or.cond, label %44, label %66

44:                                               ; preds = %40
  call void @llvm.lifetime.start.p0(i64 8, ptr nonnull %5) #12
  %45 = call zeroext i1 @SDL_ShouldRelinquishPopupFocus(ptr noundef nonnull %1, ptr noundef nonnull %5) #12
  %46 = load ptr, ptr %5, align 8
  %47 = getelementptr inbounds nuw i8, ptr %46, i64 72
  %48 = load i64, ptr %47, align 8
  %49 = and i64 %48, 786432
  %.not8.i = icmp eq i64 %49, 0
  br i1 %.not8.i, label %._crit_edge.i, label %.lr.ph.i

.lr.ph.i:                                         ; preds = %44, %.lr.ph.i
  %.09.i = phi ptr [ %51, %.lr.ph.i ], [ %46, %44 ]
  %50 = getelementptr inbounds nuw i8, ptr %.09.i, i64 424
  %51 = load ptr, ptr %50, align 8
  %52 = getelementptr inbounds nuw i8, ptr %51, i64 72
  %53 = load i64, ptr %52, align 8
  %54 = and i64 %53, 786432
  %.not.i25 = icmp eq i64 %54, 0
  br i1 %.not.i25, label %._crit_edge.i, label %.lr.ph.i, !llvm.loop !17

._crit_edge.i:                                    ; preds = %.lr.ph.i, %44
  %.0.lcssa.i = phi ptr [ %46, %44 ], [ %51, %.lr.ph.i ]
  %55 = getelementptr inbounds nuw i8, ptr %.0.lcssa.i, i64 400
  store ptr %46, ptr %55, align 8
  br i1 %45, label %56, label %X11_SetKeyboardFocus.exit

56:                                               ; preds = %._crit_edge.i
  %57 = getelementptr inbounds nuw i8, ptr %46, i64 265
  %58 = load i8, ptr %57, align 1, !range !5, !noundef !6
  %59 = trunc nuw i8 %58 to i1
  br i1 %59, label %X11_SetKeyboardFocus.exit, label %60

60:                                               ; preds = %56
  %61 = getelementptr inbounds nuw i8, ptr %46, i64 271
  %62 = load i8, ptr %61, align 1, !range !5, !noundef !6
  %63 = trunc nuw i8 %62 to i1
  br i1 %63, label %X11_SetKeyboardFocus.exit, label %64

64:                                               ; preds = %60
  %65 = call zeroext i1 @SDL_SetKeyboardFocus(ptr noundef nonnull %46) #12
  br label %X11_SetKeyboardFocus.exit

X11_SetKeyboardFocus.exit:                        ; preds = %._crit_edge.i, %56, %60, %64
  call void @llvm.lifetime.end.p0(i64 8, ptr nonnull %5) #12
  br label %66

66:                                               ; preds = %X11_SetKeyboardFocus.exit, %40
  %67 = load ptr, ptr @X11_XSync, align 8
  %68 = call i32 %67(ptr noundef %15, i32 noundef 0) #12
  call void @X11_PumpEvents(ptr noundef nonnull %0) #12
  call void @llvm.lifetime.end.p0(i64 192, ptr nonnull %4) #12
  ret void
}